target datalayout = "e-m:e-p270:32:32-p271:32:32-p272:64:64-i64:64-i128:128-f80:128-n8:16:32:64-S128"
target triple = "x86_64-pc-linux-gnu"

@"_ZTIZN3igl7tinyply7PlyFile11PlyFileImpl10parse_dataERSibE3$_1" = internal constant { ptr, ptr } { ptr getelementptr inbounds (ptr, ptr @_ZTVN10__cxxabiv117__class_type_infoE, i64 2), ptr @"_ZTSZN3igl7tinyply7PlyFile11PlyFileImpl10parse_dataERSibE3$_1" }, align 8

; Function Attrs: mustprogress uwtable
define internal void @"_ZNSt14_Function_base13_Base_managerIZN3igl7tinyply7PlyFile11PlyFileImpl10parse_dataERSibE3$_1E9_M_createIRKS6_EEvRSt9_Any_dataOT_St17integral_constantIbLb0EE"(ptr noundef nonnull align 8 dereferenceable(16) %0, ptr noundef nonnull align 8 dereferenceable(32) %1) #3 align 2 {
  %3 = alloca ptr, align 8
  %4 = alloca ptr, align 8
  store ptr %0, ptr %3, align 8, !tbaa !832
  store ptr %1, ptr %4, align 8, !tbaa !29
  %5 = call noalias noundef nonnull ptr @_Znwm(i64 noundef 32) #24
  %6 = load ptr, ptr %4, align 8, !tbaa !29
  call void @llvm.memcpy.p0.p0.i64(ptr align 16 %5, ptr align 8 %6, i64 32, i1 false), !tbaa.struct !836
  %7 = load ptr, ptr %3, align 8, !tbaa !832
  %8 = call noundef nonnull align 8 dereferenceable(8) ptr @"_ZNSt9_Any_data9_M_accessIPZN3igl7tinyply7PlyFile11PlyFileImpl10parse_dataERSibE3$_1EERT_v"(ptr noundef nonnull align 8 dereferenceable(16) %7) #6
  store ptr %5, ptr %8, align 8, !tbaa !29
  ret void
}

; Function Attrs: mustprogress nounwind uwtable
define linkonce_odr dso_local noundef ptr @_ZNKSt9_Any_data9_M_accessEv(ptr noundef nonnull align 8 dereferenceable(16) %0) #4 comdat align 2 {
  %2 = alloca ptr, align 8
  store ptr %0, ptr %2, align 8, !tbaa !832
  %3 = load ptr, ptr %2, align 8
  %4 = getelementptr inbounds [16 x i8], ptr %3, i64 0, i64 0
  ret ptr %4
}

; Function Attrs: mustprogress nounwind uwtable
define internal void @"_ZNSt14_Function_base13_Base_managerIZN3igl7tinyply7PlyFile11PlyFileImpl10parse_dataERSibE3$_1E10_M_destroyERSt9_Any_dataSt17integral_constantIbLb0EE"(ptr noundef nonnull align 8 dereferenceable(16) %0) #4 align 2 {
  %2 = alloca ptr, align 8
  store ptr %0, ptr %2, align 8, !tbaa !832
  %3 = load ptr, ptr %2, align 8, !tbaa !832
  %4 = call noundef nonnull align 8 dereferenceable(8) ptr @"_ZNSt9_Any_data9_M_accessIPZN3igl7tinyply7PlyFile11PlyFileImpl10parse_dataERSibE3$_1EERT_v"(ptr noundef nonnull align 8 dereferenceable(16) %3) #6
  %5 = load ptr, ptr %4, align 8, !tbaa !29
  %6 = icmp eq ptr %5, null
  br i1 %6, label %8, label %7

7:                                                ; preds = %1
  call void @_ZdlPvm(ptr noundef %5, i64 noundef 32) #25
  br label %8

8:                                                ; preds = %7, %1
  ret void
}

; Function Attrs: mustprogress uwtable
define internal void @"_ZNSt14_Function_base13_Base_managerIZN3igl7tinyply7PlyFile11PlyFileImpl10parse_dataERSibE3$_1E15_M_init_functorIRKS6_EEvRSt9_Any_dataOT_"(ptr noundef nonnull align 8 dereferenceable(16) %0, ptr noundef nonnull align 8 dereferenceable(32) %1) #3 align 2 {
  %3 = alloca ptr, align 8
  %4 = alloca ptr, align 8
  store ptr %0, ptr %3, align 8, !tbaa !832
  store ptr %1, ptr %4, align 8, !tbaa !29
  %5 = load ptr, ptr %3, align 8, !tbaa !832
  %6 = load ptr, ptr %4, align 8, !tbaa !29
  call void @"_ZNSt14_Function_base13_Base_managerIZN3igl7tinyply7PlyFile11PlyFileImpl10parse_dataERSibE3$_1E9_M_createIRKS6_EEvRSt9_Any_dataOT_St17integral_constantIbLb0EE"(ptr noundef nonnull align 8 dereferenceable(16) %5, ptr noundef nonnull align 8 dereferenceable(32) %6)
  ret void
}

; Function Attrs: mustprogress nounwind uwtable
define internal noundef nonnull align 8 dereferenceable(8) ptr @"_ZNKSt9_Any_data9_M_accessIPZN3igl7tinyply7PlyFile11PlyFileImpl10parse_dataERSibE3$_1EERKT_v"(ptr noundef nonnull align 8 dereferenceable(16) %0) #4 align 2 {
  %2 = alloca ptr, align 8
  store ptr %0, ptr %2, align 8, !tbaa !832
  %3 = load ptr, ptr %2, align 8
  %4 = call noundef ptr @_ZNKSt9_Any_data9_M_accessEv(ptr noundef nonnull align 8 dereferenceable(16) %3) #6
  ret ptr %4
}

; Function Attrs: mustprogress nounwind uwtable
define linkonce_odr dso_local noundef ptr @_ZNSt9_Any_data9_M_accessEv(ptr noundef nonnull align 8 dereferenceable(16) %0) #4 comdat align 2 {
  %2 = alloca ptr, align 8
  store ptr %0, ptr %2, align 8, !tbaa !832
  %3 = load ptr, ptr %2, align 8
  %4 = getelementptr inbounds [16 x i8], ptr %3, i64 0, i64 0
  ret ptr %4
}

; Function Attrs: mustprogress uwtable
define internal noundef zeroext i1 @"_ZNSt14_Function_base13_Base_managerIZN3igl7tinyply7PlyFile11PlyFileImpl10parse_dataERSibE3$_1E10_M_managerERSt9_Any_dataRKS8_St18_Manager_operation"(ptr noundef nonnull align 8 dereferenceable(16) %0, ptr noundef nonnull align 8 dereferenceable(16) %1, i32 noundef %2) #3 align 2 {
  %4 = alloca ptr, align 8
  %5 = alloca ptr, align 8
  %6 = alloca i32, align 4
  store ptr %0, ptr %4, align 8, !tbaa !832
  store ptr %1, ptr %5, align 8, !tbaa !832
  store i32 %2, ptr %6, align 4, !tbaa !834
  %7 = load i32, ptr %6, align 4, !tbaa !834
  switch i32 %7, label %22 [
    i32 0, label %8
    i32 1, label %11
    i32 2, label %16
    i32 3, label %20
  ]

8:                                                ; preds = %3
  %9 = load ptr, ptr %4, align 8, !tbaa !832
  %10 = call noundef nonnull align 8 dereferenceable(8) ptr @_ZNSt9_Any_data9_M_accessIPKSt9type_infoEERT_v(ptr noundef nonnull align 8 dereferenceable(16) %9) #6
  store ptr @"_ZTIZN3igl7tinyply7PlyFile11PlyFileImpl10parse_dataERSibE3$_1", ptr %10, align 8, !tbaa !775
  br label %22

11:                                               ; preds = %3
  %12 = load ptr, ptr %5, align 8, !tbaa !832
  %13 = call noundef ptr @"_ZNSt14_Function_base13_Base_managerIZN3igl7tinyply7PlyFile11PlyFileImpl10parse_dataERSibE3$_1E14_M_get_pointerERKSt9_Any_data"(ptr noundef nonnull align 8 dereferenceable(16) %12) #6
  %14 = load ptr, ptr %4, align 8, !tbaa !832
  %15 = call noundef nonnull align 8 dereferenceable(8) ptr @"_ZNSt9_Any_data9_M_accessIPZN3igl7tinyply7PlyFile11PlyFileImpl10parse_dataERSibE3$_1EERT_v"(ptr noundef nonnull align 8 dereferenceable(16) %14) #6
  store ptr %13, ptr %15, align 8, !tbaa !29
  br label %22

16:                                               ; preds = %3
  %17 = load ptr, ptr %4, align 8, !tbaa !832
  %18 = load ptr, ptr %5, align 8, !tbaa !832
  %19 = call noundef ptr @"_ZNSt14_Function_base13_Base_managerIZN3igl7tinyply7PlyFile11PlyFileImpl10parse_dataERSibE3$_1E14_M_get_pointerERKSt9_Any_data"(ptr noundef nonnull align 8 dereferenceable(16) %18) #6
  call void @"_ZNSt14_Function_base13_Base_managerIZN3igl7tinyply7PlyFile11PlyFileImpl10parse_dataERSibE3$_1E15_M_init_functorIRKS6_EEvRSt9_Any_dataOT_"(ptr noundef nonnull align 8 dereferenceable(16) %17, ptr noundef nonnull align 8 dereferenceable(32) %19)
  br label %22

20:                                               ; preds = %3
  %21 = load ptr, ptr %4, align 8, !tbaa !832
  call void @"_ZNSt14_Function_base13_Base_managerIZN3igl7tinyply7PlyFile11PlyFileImpl10parse_dataERSibE3$_1E10_M_destroyERSt9_Any_dataSt17integral_constantIbLb0EE"(ptr noundef nonnull align 8 dereferenceable(16) %21)
  br label %22

22:                                               ; preds = %3, %20, %16, %11, %8
  ret i1 false
}

; Function Attrs: mustprogress nounwind uwtable
define internal noundef nonnull align 8 dereferenceable(8) ptr @"_ZNSt9_Any_data9_M_accessIPZN3igl7tinyply7PlyFile11PlyFileImpl10parse_dataERSibE3$_1EERT_v"(ptr noundef nonnull align 8 dereferenceable(16) %0) #4 align 2 {
  %2 = alloca ptr, align 8
  store ptr %0, ptr %2, align 8, !tbaa !832
  %3 = load ptr, ptr %2, align 8
  %4 = call noundef ptr @_ZNSt9_Any_data9_M_accessEv(ptr noundef nonnull align 8 dereferenceable(16) %3) #6
  ret ptr %4
}

; Function Attrs: mustprogress nounwind uwtable
define internal noundef ptr @"_ZNSt14_Function_base13_Base_managerIZN3igl7tinyply7PlyFile11PlyFileImpl10parse_dataERSibE3$_1E14_M_get_pointerERKSt9_Any_data"(ptr noundef nonnull align 8 dereferenceable(16) %0) #4 align 2 {
  %2 = alloca ptr, align 8
  store ptr %0, ptr %2, align 8, !tbaa !832
  %3 = load ptr, ptr %2, align 8, !tbaa !832
  %4 = call noundef nonnull align 8 dereferenceable(8) ptr @"_ZNKSt9_Any_data9_M_accessIPZN3igl7tinyply7PlyFile11PlyFileImpl10parse_dataERSibE3$_1EERKT_v"(ptr noundef nonnull align 8 dereferenceable(16) %3) #6
  %5 = load ptr, ptr %4, align 8, !tbaa !29
  ret ptr %5
}

; Function Attrs: mustprogress nounwind uwtable
define linkonce_odr dso_local noundef nonnull align 8 dereferenceable(8) ptr @_ZNSt9_Any_data9_M_accessIPKSt9type_infoEERT_v(ptr noundef nonnull align 8 dereferenceable(16) %0) #4 comdat align 2 {
  %2 = alloca ptr, align 8
  store ptr %0, ptr %2, align 8, !tbaa !832
  %3 = load ptr, ptr %2, align 8
  %4 = call noundef ptr @_ZNSt9_Any_data9_M_accessEv(ptr noundef nonnull align 8 dereferenceable(16) %3) #6
  ret ptr %4
}

; Function Attrs: mustprogress uwtable
define internal noundef zeroext i1 @"_ZNSt17_Function_handlerIFmRN3igl7tinyply7PlyFile11PlyFileImpl14PropertyLookupERKNS1_11PlyPropertyERSiEZNS3_10parse_dataES9_bE3$_1E10_M_managerERSt9_Any_dataRKSD_St18_Manager_operation"(ptr noundef nonnull align 8 dereferenceable(16) %0, ptr noundef nonnull align 8 dereferenceable(16) %1, i32 noundef %2) #3 align 2 {
  %4 = alloca ptr, align 8
  %5 = alloca ptr, align 8
  %6 = alloca i32, align 4
  store ptr %0, ptr %4, align 8, !tbaa !832
  store ptr %1, ptr %5, align 8, !tbaa !832
  store i32 %2, ptr %6, align 4, !tbaa !834
  %7 = load i32, ptr %6, align 4, !tbaa !834
  switch i32 %7, label %16 [
    i32 0, label %8
    i32 1, label %11
  ]

8:                                                ; preds = %3
  %9 = load ptr, ptr %4, align 8, !tbaa !832
  %10 = call noundef nonnull align 8 dereferenceable(8) ptr @_ZNSt9_Any_data9_M_accessIPKSt9type_infoEERT_v(ptr noundef nonnull align 8 dereferenceable(16) %9) #6
  store ptr @"_ZTIZN3igl7tinyply7PlyFile11PlyFileImpl10parse_dataERSibE3$_1", ptr %10, align 8, !tbaa !775
  br label %21

11:                                               ; preds = %3
  %12 = load ptr, ptr %5, align 8, !tbaa !832
  %13 = call noundef ptr @"_ZNSt14_Function_base13_Base_managerIZN3igl7tinyply7PlyFile11PlyFileImpl10parse_dataERSibE3$_1E14_M_get_pointerERKSt9_Any_data"(ptr noundef nonnull align 8 dereferenceable(16) %12) #6
  %14 = load ptr, ptr %4, align 8, !tbaa !832
  %15 = call noundef nonnull align 8 dereferenceable(8) ptr @"_ZNSt9_Any_data9_M_accessIPZN3igl7tinyply7PlyFile11PlyFileImpl10parse_dataERSibE3$_1EERT_v"(ptr noundef nonnull align 8 dereferenceable(16) %14) #6
  store ptr %13, ptr %15, align 8, !tbaa !29
  br label %21

16:                                               ; preds = %3
  %17 = load ptr, ptr %4, align 8, !tbaa !832
  %18 = load ptr, ptr %5, align 8, !tbaa !832
  %19 = load i32, ptr %6, align 4, !tbaa !834
  %20 = call noundef zeroext i1 @"_ZNSt14_Function_base13_Base_managerIZN3igl7tinyply7PlyFile11PlyFileImpl10parse_dataERSibE3$_1E10_M_managerERSt9_Any_dataRKS8_St18_Manager_operation"(ptr noundef nonnull align 8 dereferenceable(16) %17, ptr noundef nonnull align 8 dereferenceable(16) %18, i32 noundef %19)
  br label %21

21:                                               ; preds = %16, %11, %8
  ret i1 false
}